target datalayout = "e-m:e-p270:32:32-p271:32:32-p272:64:64-i64:64-i128:128-f80:128-n8:16:32:64-S128"
target triple = "x86_64-pc-linux-gnu"

%"class.std::_Function_base" = type { %"union.std::_Any_data", ptr }
%"union.std::_Any_data" = type { %"union.std::_Nocopy_types" }
%"union.std::_Nocopy_types" = type { { i64, i64 } }
%"class.rocksdb::Status" = type { i8, i8, i8, i8, i8, i8, %"class.std::unique_ptr.198" }
%"class.std::unique_ptr.198" = type { %"struct.std::__uniq_ptr_data.199" }
%"struct.std::__uniq_ptr_data.199" = type { %"class.std::__uniq_ptr_impl.200" }
%"class.std::__uniq_ptr_impl.200" = type { %"class.std::tuple.201" }
%"class.std::tuple.201" = type { %"struct.std::_Tuple_impl.202" }
%"struct.std::_Tuple_impl.202" = type { %"struct.std::_Head_base.205" }
%"struct.std::_Head_base.205" = type { ptr }
%"class.std::function.485" = type { %"class.std::_Function_base", ptr }
%class.anon.491 = type { ptr, ptr, ptr, ptr }

; Function Attrs: mustprogress nounwind uwtable
define linkonce_odr noundef ptr @_ZNSt9_Any_data9_M_accessEv(ptr noundef nonnull align 8 dereferenceable(16) %0) #3 comdat align 2 {
  %2 = alloca ptr, align 8
  store ptr %0, ptr %2, align 8, !tbaa !1219
  %3 = load ptr, ptr %2, align 8
  %4 = getelementptr inbounds [16 x i8], ptr %3, i64 0, i64 0
  ret ptr %4
}

; Function Attrs: mustprogress nounwind uwtable
define internal noundef nonnull align 8 dereferenceable(8) ptr @"_ZNSt9_Any_data9_M_accessIPZN7rocksdb18WriteUnpreparedTxn12SingleDeleteEPNS1_18ColumnFamilyHandleERKNS1_5SliceEbE3$_0EERT_v"(ptr noundef nonnull align 8 dereferenceable(16) %0) #3 align 2 {
  %2 = alloca ptr, align 8
  store ptr %0, ptr %2, align 8, !tbaa !1219
  %3 = load ptr, ptr %2, align 8
  %4 = call noundef ptr @_ZNSt9_Any_data9_M_accessEv(ptr noundef nonnull align 8 dereferenceable(16) %3) #4
  ret ptr %4
}

; Function Attrs: mustprogress uwtable
define internal void @"_ZNSt14_Function_base13_Base_managerIZN7rocksdb18WriteUnpreparedTxn12SingleDeleteEPNS1_18ColumnFamilyHandleERKNS1_5SliceEbE3$_0E9_M_createIS8_EEvRSt9_Any_dataOT_St17integral_constantIbLb0EE"(ptr noundef nonnull align 8 dereferenceable(16) %0, ptr noundef nonnull align 8 dereferenceable(32) %1) #5 align 2 {
  %3 = alloca ptr, align 8
  %4 = alloca ptr, align 8
  store ptr %0, ptr %3, align 8, !tbaa !1219
  store ptr %1, ptr %4, align 8, !tbaa !32
  %5 = call noalias noundef nonnull ptr @_Znwm(i64 noundef 32) #26
  %6 = load ptr, ptr %4, align 8, !tbaa !32
  call void @llvm.memcpy.p0.p0.i64(ptr align 16 %5, ptr align 8 %6, i64 32, i1 false), !tbaa.struct !1239
  %7 = load ptr, ptr %3, align 8, !tbaa !1219
  %8 = call noundef nonnull align 8 dereferenceable(8) ptr @"_ZNSt9_Any_data9_M_accessIPZN7rocksdb18WriteUnpreparedTxn12SingleDeleteEPNS1_18ColumnFamilyHandleERKNS1_5SliceEbE3$_0EERT_v"(ptr noundef nonnull align 8 dereferenceable(16) %7) #4
  store ptr %5, ptr %8, align 8, !tbaa !32
  ret void
}

; Function Attrs: mustprogress uwtable
define internal void @"_ZNSt14_Function_base13_Base_managerIZN7rocksdb18WriteUnpreparedTxn12SingleDeleteEPNS1_18ColumnFamilyHandleERKNS1_5SliceEbE3$_0E15_M_init_functorIS8_EEvRSt9_Any_dataOT_"(ptr noundef nonnull align 8 dereferenceable(16) %0, ptr noundef nonnull align 8 dereferenceable(32) %1) #5 align 2 {
  %3 = alloca ptr, align 8
  %4 = alloca ptr, align 8
  store ptr %0, ptr %3, align 8, !tbaa !1219
  store ptr %1, ptr %4, align 8, !tbaa !32
  %5 = load ptr, ptr %3, align 8, !tbaa !1219
  %6 = load ptr, ptr %4, align 8, !tbaa !32
  call void @"_ZNSt14_Function_base13_Base_managerIZN7rocksdb18WriteUnpreparedTxn12SingleDeleteEPNS1_18ColumnFamilyHandleERKNS1_5SliceEbE3$_0E9_M_createIS8_EEvRSt9_Any_dataOT_St17integral_constantIbLb0EE"(ptr noundef nonnull align 8 dereferenceable(16) %5, ptr noundef nonnull align 8 dereferenceable(32) %6)
  ret void
}

; Function Attrs: mustprogress nounwind uwtable
define internal noundef zeroext i1 @"_ZNSt14_Function_base13_Base_managerIZN7rocksdb18WriteUnpreparedTxn12SingleDeleteEPNS1_18ColumnFamilyHandleERKNS1_5SliceEbE3$_0E21_M_not_empty_functionIS8_EEbRKT_"(ptr noundef nonnull align 8 dereferenceable(32) %0) #3 align 2 {
  %2 = alloca ptr, align 8
  store ptr %0, ptr %2, align 8, !tbaa !32
  ret i1 true
}

; Function Attrs: mustprogress nounwind uwtable
define linkonce_odr void @_ZNSt14_Function_baseC2Ev(ptr noundef nonnull align 8 dereferenceable(24) %0) unnamed_addr #3 comdat align 2 {
  %2 = alloca ptr, align 8
  store ptr %0, ptr %2, align 8, !tbaa !1075
  %3 = load ptr, ptr %2, align 8
  %4 = getelementptr inbounds nuw %"class.std::_Function_base", ptr %3, i32 0, i32 0
  store ptr null, ptr %4, align 8, !tbaa !345
  %5 = getelementptr inbounds nuw %"class.std::_Function_base", ptr %3, i32 0, i32 1
  store ptr null, ptr %5, align 8, !tbaa !361
  ret void
}

; Function Attrs: mustprogress nounwind uwtable
define linkonce_odr void @_ZNSt14_Function_baseD2Ev(ptr noundef nonnull align 8 dereferenceable(24) %0) unnamed_addr #3 comdat align 2 personality ptr @__gxx_personality_v0 {
  %2 = alloca ptr, align 8
  store ptr %0, ptr %2, align 8, !tbaa !1075
  %3 = load ptr, ptr %2, align 8
  %4 = getelementptr inbounds nuw %"class.std::_Function_base", ptr %3, i32 0, i32 1
  %5 = load ptr, ptr %4, align 8, !tbaa !361
  %6 = icmp ne ptr %5, null
  br i1 %6, label %7, label %14

7:                                                ; preds = %1
  %8 = getelementptr inbounds nuw %"class.std::_Function_base", ptr %3, i32 0, i32 1
  %9 = load ptr, ptr %8, align 8, !tbaa !361
  %10 = getelementptr inbounds nuw %"class.std::_Function_base", ptr %3, i32 0, i32 0
  %11 = getelementptr inbounds nuw %"class.std::_Function_base", ptr %3, i32 0, i32 0
  %12 = invoke noundef zeroext i1 %9(ptr noundef nonnull align 8 dereferenceable(16) %10, ptr noundef nonnull align 8 dereferenceable(16) %11, i32 noundef 3)
          to label %13 unwind label %15

13:                                               ; preds = %7
  br label %14

14:                                               ; preds = %13, %1
  ret void

15:                                               ; preds = %7
  %16 = landingpad { ptr, i32 }
          catch ptr null
  %17 = extractvalue { ptr, i32 } %16, 0
  call void @__clang_call_terminate(ptr %17) #22
  unreachable
}

; Function Attrs: mustprogress uwtable
define internal void @"_ZNSt8functionIFN7rocksdb6StatusEvEEC2IZNS0_18WriteUnpreparedTxn12SingleDeleteEPNS0_18ColumnFamilyHandleERKNS0_5SliceEbE3$_0vEEOT_"(ptr noundef nonnull align 8 dereferenceable(32) %0, ptr noundef nonnull align 8 dereferenceable(32) %1) unnamed_addr #5 align 2 personality ptr @__gxx_personality_v0 {
  %3 = alloca ptr, align 8
  %4 = alloca ptr, align 8
  %5 = alloca ptr, align 8
  %6 = alloca i32, align 4
  store ptr %0, ptr %3, align 8, !tbaa !323
  store ptr %1, ptr %4, align 8, !tbaa !32
  %7 = load ptr, ptr %3, align 8
  %8 = getelementptr inbounds i8, ptr %7, i64 0
  call void @llvm.memset.p0.i64(ptr align 8 %8, i8 0, i64 24, i1 false)
  call void @_ZNSt14_Function_baseC2Ev(ptr noundef nonnull align 8 dereferenceable(24) %7) #4
  %9 = getelementptr inbounds nuw %"class.std::function.485", ptr %7, i32 0, i32 1
  store ptr null, ptr %9, align 8, !tbaa !346
  %10 = load ptr, ptr %4, align 8, !tbaa !32
  %11 = call noundef zeroext i1 @"_ZNSt14_Function_base13_Base_managerIZN7rocksdb18WriteUnpreparedTxn12SingleDeleteEPNS1_18ColumnFamilyHandleERKNS1_5SliceEbE3$_0E21_M_not_empty_functionIS8_EEbRKT_"(ptr noundef nonnull align 8 dereferenceable(32) %10) #4
  br i1 %11, label %12, label %22

12:                                               ; preds = %2
  %13 = getelementptr inbounds nuw %"class.std::_Function_base", ptr %7, i32 0, i32 0
  %14 = load ptr, ptr %4, align 8, !tbaa !32
  invoke void @"_ZNSt14_Function_base13_Base_managerIZN7rocksdb18WriteUnpreparedTxn12SingleDeleteEPNS1_18ColumnFamilyHandleERKNS1_5SliceEbE3$_0E15_M_init_functorIS8_EEvRSt9_Any_dataOT_"(ptr noundef nonnull align 8 dereferenceable(16) %13, ptr noundef nonnull align 8 dereferenceable(32) %14)
          to label %15 unwind label %18

15:                                               ; preds = %12
  %16 = getelementptr inbounds nuw %"class.std::function.485", ptr %7, i32 0, i32 1
  store ptr @"_ZNSt17_Function_handlerIFN7rocksdb6StatusEvEZNS0_18WriteUnpreparedTxn12SingleDeleteEPNS0_18ColumnFamilyHandleERKNS0_5SliceEbE3$_0E9_M_invokeERKSt9_Any_data", ptr %16, align 8, !tbaa !346
  %17 = getelementptr inbounds nuw %"class.std::_Function_base", ptr %7, i32 0, i32 1
  store ptr @"_ZNSt17_Function_handlerIFN7rocksdb6StatusEvEZNS0_18WriteUnpreparedTxn12SingleDeleteEPNS0_18ColumnFamilyHandleERKNS0_5SliceEbE3$_0E10_M_managerERSt9_Any_dataRKSB_St18_Manager_operation", ptr %17, align 8, !tbaa !361
  br label %22

18:                                               ; preds = %12
  %19 = landingpad { ptr, i32 }
          cleanup
  %20 = extractvalue { ptr, i32 } %19, 0
  store ptr %20, ptr %5, align 8
  %21 = extractvalue { ptr, i32 } %19, 1
  store i32 %21, ptr %6, align 4
  call void @_ZNSt14_Function_baseD2Ev(ptr noundef nonnull align 8 dereferenceable(24) %7) #4
  br label %23

22:                                               ; preds = %15, %2
  ret void

23:                                               ; preds = %18
  %24 = load ptr, ptr %5, align 8
  %25 = load i32, ptr %6, align 4
  %26 = insertvalue { ptr, i32 } poison, ptr %24, 0
  %27 = insertvalue { ptr, i32 } %26, i32 %25, 1
  resume { ptr, i32 } %27
}

; Function Attrs: mustprogress uwtable
define void @_ZN7rocksdb18WriteUnpreparedTxn12SingleDeleteEPNS_18ColumnFamilyHandleERKNS_5SliceEb(ptr dead_on_unwind noalias writable sret(%"class.rocksdb::Status") align 8 %0, ptr noundef nonnull align 8 dereferenceable(848) %1, ptr noundef %2, ptr noundef nonnull align 8 dereferenceable(16) %3, i1 noundef zeroext %4) unnamed_addr #5 align 2 personality ptr @__gxx_personality_v0 {
  %6 = alloca ptr, align 8
  %7 = alloca ptr, align 8
  %8 = alloca ptr, align 8
  %9 = alloca ptr, align 8
  %10 = alloca i8, align 1
  %11 = alloca %"class.std::function.485", align 8
  %12 = alloca %class.anon.491, align 8
  %13 = alloca ptr, align 8
  %14 = alloca i32, align 4
  store ptr %0, ptr %6, align 8
  store ptr %1, ptr %7, align 8, !tbaa !191
  store ptr %2, ptr %8, align 8, !tbaa !354
  store ptr %3, ptr %9, align 8, !tbaa !356
  %15 = zext i1 %4 to i8
  store i8 %15, ptr %10, align 1, !tbaa !63
  %16 = load ptr, ptr %7, align 8
  call void @llvm.lifetime.start.p0(i64 32, ptr %12) #4
  %17 = getelementptr inbounds nuw %class.anon.491, ptr %12, i32 0, i32 0
  store ptr %16, ptr %17, align 8, !tbaa !372
  %18 = getelementptr inbounds nuw %class.anon.491, ptr %12, i32 0, i32 1
  store ptr %8, ptr %18, align 8, !tbaa !360
  %19 = getelementptr inbounds nuw %class.anon.491, ptr %12, i32 0, i32 2
  %20 = load ptr, ptr %9, align 8, !tbaa !356
  store ptr %20, ptr %19, align 8, !tbaa !356
  %21 = getelementptr inbounds nuw %class.anon.491, ptr %12, i32 0, i32 3
  store ptr %10, ptr %21, align 8, !tbaa !76
  call void @"_ZNSt8functionIFN7rocksdb6StatusEvEEC2IZNS0_18WriteUnpreparedTxn12SingleDeleteEPNS0_18ColumnFamilyHandleERKNS0_5SliceEbE3$_0vEEOT_"(ptr noundef nonnull align 8 dereferenceable(32) %11, ptr noundef nonnull align 8 dereferenceable(32) %12)
  invoke void @_ZN7rocksdb18WriteUnpreparedTxn11HandleWriteESt8functionIFNS_6StatusEvEE(ptr dead_on_unwind writable sret(%"class.rocksdb::Status") align 8 %0, ptr noundef nonnull align 8 dereferenceable(848) %16, ptr noundef %11)
          to label %22 unwind label %23

22:                                               ; preds = %5
  call void @_ZNSt14_Function_baseD2Ev(ptr noundef nonnull align 8 dereferenceable(32) %11) #4
  call void @llvm.lifetime.end.p0(i64 32, ptr %12) #4
  ret void

23:                                               ; preds = %5
  %24 = landingpad { ptr, i32 }
          cleanup
  %25 = extractvalue { ptr, i32 } %24, 0
  store ptr %25, ptr %13, align 8
  %26 = extractvalue { ptr, i32 } %24, 1
  store i32 %26, ptr %14, align 4
  call void @_ZNSt14_Function_baseD2Ev(ptr noundef nonnull align 8 dereferenceable(32) %11) #4
  call void @llvm.lifetime.end.p0(i64 32, ptr %12) #4
  br label %27

27:                                               ; preds = %23
  %28 = load ptr, ptr %13, align 8
  %29 = load i32, ptr %14, align 4
  %30 = insertvalue { ptr, i32 } poison, ptr %28, 0
  %31 = insertvalue { ptr, i32 } %30, i32 %29, 1
  resume { ptr, i32 } %31
}