; Function Attrs: mustprogress uwtable
define void @_ZN7rocksdb18WriteUnpreparedTxn12SingleDeleteEPNS_18ColumnFamilyHandleERKNS_5SliceEb(ptr dead_on_unwind noalias writable sret(%"class.rocksdb::Status") align 8 initializes((0, 6), (8, 16)) %0, ptr noundef nonnull align 8 dereferenceable(848) %1, ptr noundef %2, ptr noundef nonnull align 8 dereferenceable(16) %3, i1 noundef zeroext %4) unnamed_addr #4 align 2 personality ptr @__gxx_personality_v0 {
  %6 = alloca ptr, align 8
  %7 = alloca i8, align 1
  %8 = alloca %"class.std::function.485", align 8
  store ptr %2, ptr %6, align 8, !tbaa !327
  %9 = zext i1 %4 to i8
  store i8 %9, ptr %7, align 1, !tbaa !33
  %10 = getelementptr inbounds nuw i8, ptr %8, i64 16
  %11 = getelementptr inbounds nuw i8, ptr %8, i64 24
  %12 = getelementptr inbounds nuw i8, ptr %8, i64 8
  store i64 0, ptr %12, align 8
  %13 = tail call noalias noundef nonnull dereferenceable(32) ptr @_Znwm(i64 noundef 32) #31
  store ptr %1, ptr %13, align 16, !tbaa !329
  %.sroa.5.0..sroa_idx = getelementptr inbounds nuw i8, ptr %13, i64 8
  store ptr %6, ptr %.sroa.5.0..sroa_idx, align 8, !tbaa !331
  %.sroa.6.0..sroa_idx = getelementptr inbounds nuw i8, ptr %13, i64 16
  store ptr %3, ptr %.sroa.6.0..sroa_idx, align 16, !tbaa !333
  %.sroa.7.0..sroa_idx = getelementptr inbounds nuw i8, ptr %13, i64 24
  store ptr %7, ptr %.sroa.7.0..sroa_idx, align 8, !tbaa !334
  store ptr %13, ptr %8, align 8, !tbaa !336
  store ptr @"_ZNSt17_Function_handlerIFN7rocksdb6StatusEvEZNS0_18WriteUnpreparedTxn12SingleDeleteEPNS0_18ColumnFamilyHandleERKNS0_5SliceEbE3$_0E9_M_invokeERKSt9_Any_data", ptr %11, align 8, !tbaa !320
  store ptr @"_ZNSt17_Function_handlerIFN7rocksdb6StatusEvEZNS0_18WriteUnpreparedTxn12SingleDeleteEPNS0_18ColumnFamilyHandleERKNS0_5SliceEbE3$_0E10_M_managerERSt9_Any_dataRKSB_St18_Manager_operation", ptr %10, align 8, !tbaa !316
  invoke void @_ZN7rocksdb18WriteUnpreparedTxn11HandleWriteESt8functionIFNS_6StatusEvEE(ptr dead_on_unwind writable sret(%"class.rocksdb::Status") align 8 %0, ptr noundef nonnull align 8 dereferenceable(848) %1, ptr noundef nonnull %8)
          to label %14 unwind label %21

14:                                               ; preds = %5
  %15 = load ptr, ptr %10, align 8, !tbaa !316
  %.not.i = icmp eq ptr %15, null
  br i1 %.not.i, label %_ZNSt14_Function_baseD2Ev.exit, label %16

16:                                               ; preds = %14
  %17 = invoke noundef zeroext i1 %15(ptr noundef nonnull align 8 dereferenceable(32) %8, ptr noundef nonnull align 8 dereferenceable(32) %8, i32 noundef 3)
          to label %_ZNSt14_Function_baseD2Ev.exit unwind label %18

18:                                               ; preds = %16
  %19 = landingpad { ptr, i32 }
          catch ptr null
  %20 = extractvalue { ptr, i32 } %19, 0
  call void @__clang_call_terminate(ptr %20) #30
  unreachable

_ZNSt14_Function_baseD2Ev.exit:                   ; preds = %14, %16
  ret void

21:                                               ; preds = %5
  %22 = landingpad { ptr, i32 }
          cleanup
  %23 = load ptr, ptr %10, align 8, !tbaa !316
  %.not.i3 = icmp eq ptr %23, null
  br i1 %.not.i3, label %_ZNSt14_Function_baseD2Ev.exit4, label %24

24:                                               ; preds = %21
  %25 = invoke noundef zeroext i1 %23(ptr noundef nonnull align 8 dereferenceable(32) %8, ptr noundef nonnull align 8 dereferenceable(32) %8, i32 noundef 3)
          to label %_ZNSt14_Function_baseD2Ev.exit4 unwind label %26

26:                                               ; preds = %24
  %27 = landingpad { ptr, i32 }
          catch ptr null
  %28 = extractvalue { ptr, i32 } %27, 0
  call void @__clang_call_terminate(ptr %28) #30
  unreachable

_ZNSt14_Function_baseD2Ev.exit4:                  ; preds = %21, %24
  resume { ptr, i32 } %22
}